; Function Attrs: nounwind sspstrong uwtable
define internal i64 @rb_hash_select(i64 noundef %0) #0 {
  %2 = tail call i32 @rb_block_given_p() #28
  %.not = icmp eq i32 %2, 0
  br i1 %.not, label %3, label %7

3:                                                ; preds = %1
  %4 = tail call i64 @rb_frame_this_func() #28
  %5 = tail call i64 @rb_id2sym(i64 noundef %4) #28
  %6 = tail call i64 @rb_enumeratorize_with_size(i64 noundef %0, i64 noundef %5, i32 noundef 0, ptr noundef null, ptr noundef nonnull @hash_enum_size) #28
  br label %compact_after_delete.exit

7:                                                ; preds = %1
  %8 = load i64, ptr @rb_cHash, align 8, !tbaa !7
  %9 = inttoptr i64 %0 to ptr
  %10 = load i64, ptr %9, align 8, !tbaa !11
  %11 = and i64 %10, 32768
  %.not.i.i.not.i = icmp eq i64 %11, 0
  %12 = select i1 %.not.i.i.not.i, i64 160, i64 80
  %13 = tail call align 8 ptr @llvm.threadlocal.address.p0(ptr align 8 @ruby_current_ec)
  %14 = load ptr, ptr %13, align 8, !tbaa !24
  %15 = tail call i64 @rb_wb_protected_newobj_of(ptr noundef %14, i64 noundef %8, i64 noundef 8, i64 noundef %12) #28
  %16 = inttoptr i64 %15 to ptr
  %17 = getelementptr inbounds nuw i8, ptr %16, i64 16
  store i64 4, ptr %17, align 8, !tbaa !7
  %18 = load i64, ptr %9, align 8, !tbaa !11
  %19 = and i64 %18, 32768
  %20 = load i64, ptr %16, align 8, !tbaa !11
  %21 = and i64 %20, -32769
  %storemerge.i = or disjoint i64 %21, %19
  store i64 %storemerge.i, ptr %16, align 8, !tbaa !11
  %22 = tail call fastcc i64 @hash_copy(i64 noundef %15, i64 noundef %0)
  %23 = load i64, ptr %9, align 8, !tbaa !11
  %24 = and i64 %23, 32768
  %.not.i.i.i = icmp eq i64 %24, 0
  br i1 %.not.i.i.i, label %25, label %28

25:                                               ; preds = %7
  %26 = lshr i64 %23, 16
  %27 = and i64 %26, 15
  br label %RHASH_EMPTY_P.exit

28:                                               ; preds = %7
  %29 = add i64 %0, 24
  %30 = inttoptr i64 %29 to ptr
  %31 = getelementptr inbounds nuw i8, ptr %30, i64 16
  %32 = load i64, ptr %31, align 8, !tbaa !49
  br label %RHASH_EMPTY_P.exit

RHASH_EMPTY_P.exit:                               ; preds = %25, %28
  %.0.i.i = phi i64 [ %27, %25 ], [ %32, %28 ]
  %33 = icmp eq i64 %.0.i.i, 0
  br i1 %33, label %compact_after_delete.exit, label %34

34:                                               ; preds = %RHASH_EMPTY_P.exit
  tail call void @rb_hash_foreach(i64 noundef %15, ptr noundef @keep_if_i, i64 noundef %15)
  %35 = load i64, ptr %16, align 8, !tbaa !11
  %36 = and i64 %35, 4261445632
  %or.cond.i = icmp eq i64 %36, 32768
  br i1 %or.cond.i, label %37, label %compact_after_delete.exit

37:                                               ; preds = %34
  %38 = add i64 %15, 24
  %39 = inttoptr i64 %38 to ptr
  tail call void @rb_st_compact_table(ptr noundef nonnull %39) #28
  br label %compact_after_delete.exit

compact_after_delete.exit:                        ; preds = %37, %34, %RHASH_EMPTY_P.exit, %3
  %.0 = phi i64 [ %6, %3 ], [ %15, %RHASH_EMPTY_P.exit ], [ %15, %34 ], [ %15, %37 ]
  ret i64 %.0
}